Certificate:
    Data:
        Version: 3 (0x2)
        Serial Number:
            8c:73:ed:74:b2:59:67:9d:e6:89:c3:34:0f:b9:a6:f5
        Signature Algorithm: sha256WithRSAEncryption
        Issuer: CN=Easy-RSA CA
        Validity
            Not Before: Mar  9 20:45:03 2022 GMT
            Not After : Jun 11 20:45:03 2024 GMT
        Subject: CN=client1
        Subject Public Key Info:
            Public Key Algorithm: rsaEncryption
                RSA Public-Key: (2048 bit)
                Modulus:
                    00:d9:c1:b0:3c:07:49:77:b7:75:53:53:aa:7f:68:
                    85:57:74:fd:43:3b:d1:dd:85:61:fd:fd:af:7f:ca:
                    13:76:41:b8:4c:5b:f2:13:62:cc:63:35:4a:e8:f8:
                    03:ae:b0:b4:09:89:57:24:89:1c:8e:1f:09:bb:e5:
                    46:cc:9b:ac:ff:b0:09:b6:fc:a7:ca:1a:c6:0b:5c:
                    24:9a:76:fa:e8:6d:e9:9f:a5:5f:4a:a3:b4:de:a4:
                    c9:88:fa:d9:a5:30:2b:37:55:e3:76:11:4e:f9:53:
                    7f:15:09:92:eb:92:ff:bc:66:c0:64:0f:1b:43:e0:
                    42:9b:8b:61:e3:10:dd:7e:ae:e3:81:1a:f3:24:12:
                    e5:5a:22:be:e6:d3:91:7d:c5:76:a0:96:9d:38:7f:
                    17:68:62:8f:ea:67:cf:6c:b7:eb:36:63:df:54:e3:
                    0a:16:d0:9e:25:9f:72:12:73:66:ab:db:55:ec:1a:
                    73:20:7f:90:65:4b:c3:ae:6f:ad:b3:92:fa:fe:08:
                    38:0b:be:a1:77:84:27:90:83:55:93:7e:1d:eb:b3:
                    c4:2d:ca:c5:bd:a3:29:97:0d:e0:eb:30:34:4b:10:
                    8d:41:0d:41:08:48:f1:10:ef:14:fe:77:4c:52:31:
                    b7:ee:a8:9b:15:28:f2:0e:4f:f7:9c:10:1c:1d:4b:
                    16:51
                Exponent: 65537 (0x10001)
        X509v3 extensions:
            X509v3 Basic Constraints: 
                CA:FALSE
            X509v3 Subject Key Identifier: 
                8D:FA:28:5D:9A:37:01:1D:A6:03:A2:8F:92:52:5B:BC:32:02:1A:2A
            X509v3 Authority Key Identifier: 
                keyid:07:87:9F:6A:AD:A5:B7:C7:84:8A:4A:A4:18:5A:38:D7:2D:62:A0:B9
                DirName:/CN=Easy-RSA CA
                serial:58:06:F5:0E:42:9E:A2:D2:C8:A7:3D:C7:B4:5F:92:9E:15:E7:04:FB

            X509v3 Extended Key Usage: 
                TLS Web Client Authentication
            X509v3 Key Usage: 
                Digital Signature
    Signature Algorithm: sha256WithRSAEncryption
         5b:f1:42:37:e4:5e:dd:b8:1c:5a:f2:7b:06:b4:48:13:3d:ff:
         14:00:a0:40:a7:b0:2e:0d:2b:c4:de:46:99:3c:0f:58:82:d9:
         75:20:ed:e6:20:e6:31:81:81:99:6b:03:2b:8a:bb:aa:ab:7b:
         5e:ad:03:82:35:a4:0c:0c:cc:05:e1:83:ad:83:47:18:64:2f:
         45:66:d3:cd:71:76:0c:36:87:a3:03:1a:4c:a8:1e:34:f5:be:
         82:53:c8:fd:36:af:e1:65:98:94:7f:8a:83:e7:a2:e4:36:79:
         a0:f6:fb:fe:cf:84:a3:05:ca:4f:0d:25:f8:73:07:5e:62:8e:
         e4:bf:4b:f6:9b:a1:50:0a:30:90:36:cc:5b:df:85:58:92:76:
         99:16:dc:07:7c:bd:12:4f:bf:70:3d:c1:96:61:29:10:f9:49:
         be:9c:25:e8:97:67:e0:2a:6c:d6:04:41:43:1b:d1:bc:7a:8a:
         84:cf:d5:0b:61:b7:00:78:a0:16:27:7b:2d:47:bc:f7:50:0b:
         af:ea:8a:e9:52:02:79:e7:c3:54:2e:dd:96:a2:b4:25:d1:5b:
         f4:b7:09:6b:14:02:f5:ad:ae:4c:fb:20:3d:17:7b:48:c8:9d:
         3a:1e:49:51:56:e8:22:64:32:27:1d:1e:7e:eb:97:29:61:da:
         07:7a:56:c0
-----BEGIN CERTIFICATE-----
MIIDVjCCAj6gAwIBAgIRAIxz7XSyWWed5onDNA+5pvUwDQYJKoZIhvcNAQELBQAw
FjEUMBIGA1UEAwwLRWFzeS1SU0EgQ0EwHhcNMjIwMzA5MjA0NTAzWhcNMjQwNjEx
MjA0NTAzWjASMRAwDgYDVQQDDAdjbGllbnQxMIIBIjANBgkqhkiG9w0BAQEFAAOC
AQ8AMIIBCgKCAQEA2cGwPAdJd7d1U1Oqf2iFV3T9QzvR3YVh/f2vf8oTdkG4TFvy
E2LMYzVK6PgDrrC0CYlXJIkcjh8Ju+VGzJus/7AJtvynyhrGC1wkmnb66G3pn6Vf
SqO03qTJiPrZpTArN1XjdhFO+VN/FQmS65L/vGbAZA8bQ+BCm4th4xDdfq7jgRrz
JBLlWiK+5tORfcV2oJadOH8XaGKP6mfPbLfrNmPfVOMKFtCeJZ9yEnNmq9tV7Bpz
IH+QZUvDrm+ts5L6/gg4C76hd4QnkINVk34d67PELcrFvaMplw3g6zA0SxCNQQ1B
CEjxEO8U/ndMUjG37qibFSjyDk/3nBAcHUsWUQIDAQABo4GiMIGfMAkGA1UdEwQC
MAAwHQYDVR0OBBYEFI36KF2aNwEdpgOij5JSW7wyAhoqMFEGA1UdIwRKMEiAFAeH
n2qtpbfHhIpKpBhaONctYqC5oRqkGDAWMRQwEgYDVQQDDAtFYXN5LVJTQSBDQYIU
WAb1DkKeotLIpz3HtF+SnhXnBPswEwYDVR0lBAwwCgYIKwYBBQUHAwIwCwYDVR0P
BAQDAgeAMA0GCSqGSIb3DQEBCwUAA4IBAQBb8UI35F7duBxa8nsGtEgTPf8UAKBA
p7AuDSvE3kaZPA9Ygtl1IO3mIOYxgYGZawMriruqq3terQOCNaQMDMwF4YOtg0cY
ZC9FZtPNcXYMNoejAxpMqB409b6CU8j9Nq/hZZiUf4qD56LkNnmg9vv+z4SjBcpP
DSX4cwdeYo7kv0v2m6FQCjCQNsxb34VYknaZFtwHfL0ST79wPcGWYSkQ+Um+nCXo
l2fgKmzWBEFDG9G8eoqEz9ULYbcAeKAWJ3stR7z3UAuv6orpUgJ558NULt2WorQl
0Vv0twlrFAL1ra5M+yA9F3tIyJ06HklRVugiZDInHR5+65cpYdoHelbA
-----END CERTIFICATE-----
